; Function Attrs: nounwind uwtable
define internal i64 @H5O__layout_size(ptr noundef %0, i1 zeroext %1, ptr noundef %2) #0 {
  %4 = load i8, ptr @H5O_init_g, align 1, !tbaa !8, !range !10, !noundef !11
  %5 = trunc nuw i8 %4 to i1
  %6 = load i8, ptr @H5_libterm_g, align 1, !range !10
  %7 = trunc nuw i8 %6 to i1
  %8 = xor i1 %7, true
  %9 = select i1 %5, i1 true, i1 %8
  br i1 %9, label %10, label %12, !prof !12

10:                                               ; preds = %3
  %11 = tail call i64 @H5D__layout_meta_size(ptr noundef %0, ptr noundef %2, i1 noundef zeroext true) #12
  br label %12

12:                                               ; preds = %10, %3
  %.0 = phi i64 [ %11, %10 ], [ 0, %3 ]
  ret i64 %.0
}